target datalayout = "e-m:e-p270:32:32-p271:32:32-p272:64:64-i64:64-i128:128-f80:128-n8:16:32:64-S128"
target triple = "x86_64-pc-linux-gnu"

%class.G1PageBasedVirtualSpace = type <{ ptr, ptr, i64, i64, %class.CHeapBitMap, %class.CHeapBitMap, i8, [7 x i8] }>
%class.CHeapBitMap = type <{ %class.GrowableBitMap, i8, [7 x i8] }>
%class.GrowableBitMap = type { %class.BitMap }
%class.BitMap = type { ptr, i64 }

@g_assert_poison = external global ptr, align 8
@.str = private unnamed_addr constant [52 x i8] c"src/hotspot/share/gc/g1/g1PageBasedVirtualSpace.cpp\00", align 1
@.str.14 = private unnamed_addr constant [45 x i8] c"guarantee(index <= _committed.size()) failed\00", align 1
@.str.15 = private unnamed_addr constant [57 x i8] c"Given boundary page %lu is beyond managed page count %lu\00", align 1
@.str.16 = private unnamed_addr constant [17 x i8] c"G1 virtual space\00", align 1
@.str.17 = private unnamed_addr constant [40 x i8] c"guarantee(start_page < end_page) failed\00", align 1
@.str.18 = private unnamed_addr constant [56 x i8] c"Given start page %lu is larger or equal to end page %lu\00", align 1
@.str.19 = private unnamed_addr constant [48 x i8] c"guarantee(end_page <= _committed.size()) failed\00", align 1
@.str.20 = private unnamed_addr constant [63 x i8] c"Given end page %lu is beyond end of managed page amount of %lu\00", align 1
@_ZN6OSInfo13_vm_page_sizeE = external global i64, align 8

; Function Attrs: mustprogress nounwind uwtable
define internal noundef i64 @_ZL14alignment_maskImTnNSt9enable_ifIXcvbsr3std11is_integralIT_EE5valueEiE4typeELi0EES1_S1_(i64 noundef %0) #1 {
  %2 = alloca i64, align 8
  store i64 %0, ptr %2, align 8
  %3 = load i64, ptr %2, align 8
  %4 = sub i64 %3, 1
  ret i64 %4
}

; Function Attrs: mustprogress nounwind uwtable
define linkonce_odr hidden noundef i64 @_ZN6OSInfo12vm_page_sizeEv() #1 comdat align 2 {
  %1 = load i64, ptr @_ZN6OSInfo13_vm_page_sizeE, align 8
  ret i64 %1
}

; Function Attrs: mustprogress nounwind uwtable
define linkonce_odr hidden noundef i64 @_Z10align_downImmTnNSt9enable_ifIXcvbsr3std11is_integralIT_EE5valueEiE4typeELi0EES1_S1_T0_(i64 noundef %0, i64 noundef %1) #1 comdat {
  %3 = alloca i64, align 8
  %4 = alloca i64, align 8
  %5 = alloca i64, align 8
  store i64 %0, ptr %3, align 8
  store i64 %1, ptr %4, align 8
  %6 = load i64, ptr %3, align 8
  %7 = load i64, ptr %4, align 8
  %8 = call noundef i64 @_ZL14alignment_maskImTnNSt9enable_ifIXcvbsr3std11is_integralIT_EE5valueEiE4typeELi0EES1_S1_(i64 noundef %7)
  %9 = xor i64 %8, -1
  %10 = and i64 %6, %9
  store i64 %10, ptr %5, align 8
  %11 = load i64, ptr %5, align 8
  ret i64 %11
}

; Function Attrs: mustprogress nounwind uwtable
define linkonce_odr hidden noundef zeroext i1 @_Z10is_alignedImmTnNSt9enable_ifIXcvbsr3std11is_integralIT_EE5valueEiE4typeELi0EEbS1_T0_(i64 noundef %0, i64 noundef %1) #1 comdat {
  %3 = alloca i64, align 8
  %4 = alloca i64, align 8
  store i64 %0, ptr %3, align 8
  store i64 %1, ptr %4, align 8
  %5 = load i64, ptr %3, align 8
  %6 = load i64, ptr %4, align 8
  %7 = call noundef i64 @_ZL14alignment_maskImTnNSt9enable_ifIXcvbsr3std11is_integralIT_EE5valueEiE4typeELi0EES1_S1_(i64 noundef %6)
  %8 = and i64 %5, %7
  %9 = icmp eq i64 %8, 0
  ret i1 %9
}

; Function Attrs: mustprogress nounwind uwtable
define linkonce_odr hidden noundef i64 @_ZN2os12vm_page_sizeEv() #1 comdat align 2 {
  %1 = call noundef i64 @_ZN6OSInfo12vm_page_sizeEv()
  ret i64 %1
}

; Function Attrs: mustprogress nounwind uwtable
define linkonce_odr hidden noundef ptr @_Z10align_downIcmEPT_S1_T0_(ptr noundef %0, i64 noundef %1) #1 comdat {
  %3 = alloca ptr, align 8
  %4 = alloca i64, align 8
  store ptr %0, ptr %3, align 8
  store i64 %1, ptr %4, align 8
  %5 = load ptr, ptr %3, align 8
  %6 = ptrtoint ptr %5 to i64
  %7 = load i64, ptr %4, align 8
  %8 = call noundef i64 @_Z10align_downImmTnNSt9enable_ifIXcvbsr3std11is_integralIT_EE5valueEiE4typeELi0EES1_S1_T0_(i64 noundef %6, i64 noundef %7)
  %9 = inttoptr i64 %8 to ptr
  ret ptr %9
}

; Function Attrs: mustprogress nounwind uwtable
define hidden noundef ptr @_ZNK23G1PageBasedVirtualSpace10page_startEm(ptr noundef nonnull align 8 dereferenceable(81) %0, i64 noundef %1) #1 align 2 {
  %3 = alloca ptr, align 8
  %4 = alloca i64, align 8
  store ptr %0, ptr %3, align 8
  store i64 %1, ptr %4, align 8
  %5 = load ptr, ptr %3, align 8
  %6 = getelementptr inbounds %class.G1PageBasedVirtualSpace, ptr %5, i32 0, i32 0
  %7 = load ptr, ptr %6, align 8
  %8 = load i64, ptr %4, align 8
  %9 = getelementptr inbounds %class.G1PageBasedVirtualSpace, ptr %5, i32 0, i32 3
  %10 = load i64, ptr %9, align 8
  %11 = mul i64 %8, %10
  %12 = getelementptr inbounds i8, ptr %7, i64 %11
  ret ptr %12
}

; Function Attrs: mustprogress nounwind uwtable
define linkonce_odr hidden noundef zeroext i1 @_Z10is_alignedIcmEbPT_T0_(ptr noundef %0, i64 noundef %1) #1 comdat {
  %3 = alloca ptr, align 8
  %4 = alloca i64, align 8
  store ptr %0, ptr %3, align 8
  store i64 %1, ptr %4, align 8
  %5 = load ptr, ptr %3, align 8
  %6 = ptrtoint ptr %5 to i64
  %7 = load i64, ptr %4, align 8
  %8 = call noundef zeroext i1 @_Z10is_alignedImmTnNSt9enable_ifIXcvbsr3std11is_integralIT_EE5valueEiE4typeELi0EEbS1_T0_(i64 noundef %6, i64 noundef %7)
  ret i1 %8
}

; Function Attrs: mustprogress nounwind uwtable
define hidden void @_ZN23G1PageBasedVirtualSpace11commit_tailEv(ptr noundef nonnull align 8 dereferenceable(81) %0) #1 align 2 {
  %2 = alloca ptr, align 8
  %3 = alloca ptr, align 8
  store ptr %0, ptr %2, align 8
  %4 = load ptr, ptr %2, align 8
  %5 = getelementptr inbounds %class.G1PageBasedVirtualSpace, ptr %4, i32 0, i32 1
  %6 = load ptr, ptr %5, align 8
  %7 = getelementptr inbounds %class.G1PageBasedVirtualSpace, ptr %4, i32 0, i32 3
  %8 = load i64, ptr %7, align 8
  %9 = call noundef ptr @_Z10align_downIcmEPT_S1_T0_(ptr noundef %6, i64 noundef %8)
  store ptr %9, ptr %3, align 8
  %10 = load ptr, ptr %3, align 8
  %11 = getelementptr inbounds %class.G1PageBasedVirtualSpace, ptr %4, i32 0, i32 2
  %12 = load i64, ptr %11, align 8
  %13 = call noundef i64 @_ZN2os12vm_page_sizeEv()
  call void @_ZN2os21commit_memory_or_exitEPcmmbPKc(ptr noundef %10, i64 noundef %12, i64 noundef %13, i1 noundef zeroext false, ptr noundef @.str.16)
  ret void
}

; Function Attrs: mustprogress nounwind uwtable
define hidden void @_ZN23G1PageBasedVirtualSpace22commit_preferred_pagesEmm(ptr noundef nonnull align 8 dereferenceable(81) %0, i64 noundef %1, i64 noundef %2) #1 align 2 {
  %4 = alloca ptr, align 8
  %5 = alloca i64, align 8
  %6 = alloca i64, align 8
  %7 = alloca ptr, align 8
  %8 = alloca i64, align 8
  store ptr %0, ptr %4, align 8
  store i64 %1, ptr %5, align 8
  store i64 %2, ptr %6, align 8
  %9 = load ptr, ptr %4, align 8
  %10 = load i64, ptr %5, align 8
  %11 = call noundef ptr @_ZNK23G1PageBasedVirtualSpace10page_startEm(ptr noundef nonnull align 8 dereferenceable(81) %9, i64 noundef %10)
  store ptr %11, ptr %7, align 8
  %12 = load i64, ptr %6, align 8
  %13 = getelementptr inbounds %class.G1PageBasedVirtualSpace, ptr %9, i32 0, i32 3
  %14 = load i64, ptr %13, align 8
  %15 = mul i64 %12, %14
  store i64 %15, ptr %8, align 8
  %16 = load ptr, ptr %7, align 8
  %17 = load i64, ptr %8, align 8
  %18 = getelementptr inbounds %class.G1PageBasedVirtualSpace, ptr %9, i32 0, i32 3
  %19 = load i64, ptr %18, align 8
  call void @_ZN2os21commit_memory_or_exitEPcmmbPKc(ptr noundef %16, i64 noundef %17, i64 noundef %19, i1 noundef zeroext false, ptr noundef @.str.16)
  ret void
}

; Function Attrs: mustprogress nounwind uwtable
define linkonce_odr hidden noundef zeroext i1 @_ZNK23G1PageBasedVirtualSpace20is_last_page_partialEv(ptr noundef nonnull align 8 dereferenceable(81) %0) #1 comdat align 2 {
  %2 = alloca ptr, align 8
  store ptr %0, ptr %2, align 8
  %3 = load ptr, ptr %2, align 8
  %4 = getelementptr inbounds %class.G1PageBasedVirtualSpace, ptr %3, i32 0, i32 1
  %5 = load ptr, ptr %4, align 8
  %6 = getelementptr inbounds %class.G1PageBasedVirtualSpace, ptr %3, i32 0, i32 3
  %7 = load i64, ptr %6, align 8
  %8 = call noundef zeroext i1 @_Z10is_alignedIcmEbPT_T0_(ptr noundef %5, i64 noundef %7)
  %9 = xor i1 %8, true
  ret i1 %9
}

; Function Attrs: mustprogress nounwind uwtable
define hidden noundef zeroext i1 @_ZNK23G1PageBasedVirtualSpace18is_after_last_pageEm(ptr noundef nonnull align 8 dereferenceable(81) %0, i64 noundef %1) #1 align 2 {
  %3 = alloca ptr, align 8
  %4 = alloca i64, align 8
  store ptr %0, ptr %3, align 8
  store i64 %1, ptr %4, align 8
  %5 = load ptr, ptr %3, align 8
  br label %6

6:                                                ; preds = %2
  %7 = load i64, ptr %4, align 8
  %8 = getelementptr inbounds %class.G1PageBasedVirtualSpace, ptr %5, i32 0, i32 4
  %9 = call noundef i64 @_ZNK6BitMap4sizeEv(ptr noundef nonnull align 8 dereferenceable(16) %8)
  %10 = icmp ule i64 %7, %9
  br i1 %10, label %16, label %11

11:                                               ; preds = %6
  %12 = load ptr, ptr @g_assert_poison, align 8
  store i8 88, ptr %12, align 1
  %13 = load i64, ptr %4, align 8
  %14 = getelementptr inbounds %class.G1PageBasedVirtualSpace, ptr %5, i32 0, i32 4
  %15 = call noundef i64 @_ZNK6BitMap4sizeEv(ptr noundef nonnull align 8 dereferenceable(16) %14)
  call void (ptr, i32, ptr, ptr, ...) @_Z15report_vm_errorPKciS0_S0_z(ptr noundef @.str, i32 noundef 124, ptr noundef @.str.14, ptr noundef @.str.15, i64 noundef %13, i64 noundef %15) #7
  unreachable

16:                                               ; preds = %6
  br label %17

17:                                               ; preds = %16
  %18 = load i64, ptr %4, align 8
  %19 = getelementptr inbounds %class.G1PageBasedVirtualSpace, ptr %5, i32 0, i32 4
  %20 = call noundef i64 @_ZNK6BitMap4sizeEv(ptr noundef nonnull align 8 dereferenceable(16) %19)
  %21 = icmp eq i64 %18, %20
  ret i1 %21
}

; Function Attrs: mustprogress nounwind uwtable
define linkonce_odr hidden noundef i64 @_ZNK6BitMap4sizeEv(ptr noundef nonnull align 8 dereferenceable(16) %0) #1 comdat align 2 {
  %2 = alloca ptr, align 8
  store ptr %0, ptr %2, align 8
  %3 = load ptr, ptr %2, align 8
  %4 = getelementptr inbounds %class.BitMap, ptr %3, i32 0, i32 1
  %5 = load i64, ptr %4, align 8
  ret i64 %5
}

; Function Attrs: mustprogress nounwind uwtable
define hidden void @_ZN23G1PageBasedVirtualSpace15commit_internalEmm(ptr noundef nonnull align 8 dereferenceable(81) %0, i64 noundef %1, i64 noundef %2) #1 align 2 {
  %4 = alloca ptr, align 8
  %5 = alloca i64, align 8
  %6 = alloca i64, align 8
  %7 = alloca i64, align 8
  %8 = alloca i8, align 1
  store ptr %0, ptr %4, align 8
  store i64 %1, ptr %5, align 8
  store i64 %2, ptr %6, align 8
  %9 = load ptr, ptr %4, align 8
  br label %10

10:                                               ; preds = %3
  %11 = load i64, ptr %5, align 8
  %12 = load i64, ptr %6, align 8
  %13 = icmp ult i64 %11, %12
  br i1 %13, label %18, label %14

14:                                               ; preds = %10
  %15 = load ptr, ptr @g_assert_poison, align 8
  store i8 88, ptr %15, align 1
  %16 = load i64, ptr %5, align 8
  %17 = load i64, ptr %6, align 8
  call void (ptr, i32, ptr, ptr, ...) @_Z15report_vm_errorPKciS0_S0_z(ptr noundef @.str, i32 noundef 150, ptr noundef @.str.17, ptr noundef @.str.18, i64 noundef %16, i64 noundef %17) #7
  unreachable

18:                                               ; preds = %10
  br label %19

19:                                               ; preds = %18
  br label %20

20:                                               ; preds = %19
  %21 = load i64, ptr %6, align 8
  %22 = getelementptr inbounds %class.G1PageBasedVirtualSpace, ptr %9, i32 0, i32 4
  %23 = call noundef i64 @_ZNK6BitMap4sizeEv(ptr noundef nonnull align 8 dereferenceable(16) %22)
  %24 = icmp ule i64 %21, %23
  br i1 %24, label %30, label %25

25:                                               ; preds = %20
  %26 = load ptr, ptr @g_assert_poison, align 8
  store i8 88, ptr %26, align 1
  %27 = load i64, ptr %6, align 8
  %28 = getelementptr inbounds %class.G1PageBasedVirtualSpace, ptr %9, i32 0, i32 4
  %29 = call noundef i64 @_ZNK6BitMap4sizeEv(ptr noundef nonnull align 8 dereferenceable(16) %28)
  call void (ptr, i32, ptr, ptr, ...) @_Z15report_vm_errorPKciS0_S0_z(ptr noundef @.str, i32 noundef 152, ptr noundef @.str.19, ptr noundef @.str.20, i64 noundef %27, i64 noundef %29) #7
  unreachable

30:                                               ; preds = %20
  br label %31

31:                                               ; preds = %30
  %32 = load i64, ptr %6, align 8
  %33 = load i64, ptr %5, align 8
  %34 = sub i64 %32, %33
  store i64 %34, ptr %7, align 8
  %35 = load i64, ptr %6, align 8
  %36 = call noundef zeroext i1 @_ZNK23G1PageBasedVirtualSpace18is_after_last_pageEm(ptr noundef nonnull align 8 dereferenceable(81) %9, i64 noundef %35)
  br i1 %36, label %37, label %39

37:                                               ; preds = %31
  %38 = call noundef zeroext i1 @_ZNK23G1PageBasedVirtualSpace20is_last_page_partialEv(ptr noundef nonnull align 8 dereferenceable(81) %9)
  br label %39

39:                                               ; preds = %37, %31
  %40 = phi i1 [ false, %31 ], [ %38, %37 ]
  %41 = zext i1 %40 to i8
  store i8 %41, ptr %8, align 1
  %42 = load i8, ptr %8, align 1
  %43 = trunc i8 %42 to i1
  br i1 %43, label %44, label %47

44:                                               ; preds = %39
  %45 = load i64, ptr %7, align 8
  %46 = add i64 %45, -1
  store i64 %46, ptr %7, align 8
  br label %47

47:                                               ; preds = %44, %39
  %48 = load i64, ptr %7, align 8
  %49 = icmp ugt i64 %48, 0
  br i1 %49, label %50, label %53

50:                                               ; preds = %47
  %51 = load i64, ptr %5, align 8
  %52 = load i64, ptr %7, align 8
  call void @_ZN23G1PageBasedVirtualSpace22commit_preferred_pagesEmm(ptr noundef nonnull align 8 dereferenceable(81) %9, i64 noundef %51, i64 noundef %52)
  br label %53

53:                                               ; preds = %50, %47
  %54 = load i8, ptr %8, align 1
  %55 = trunc i8 %54 to i1
  br i1 %55, label %56, label %57

56:                                               ; preds = %53
  call void @_ZN23G1PageBasedVirtualSpace11commit_tailEv(ptr noundef nonnull align 8 dereferenceable(81) %9)
  br label %57

57:                                               ; preds = %56, %53
  ret void
}