; Function Attrs: mustprogress nounwind uwtable
define hidden void @_ZN23G1PageBasedVirtualSpace15commit_internalEmm(ptr nocapture noundef nonnull readonly align 8 dereferenceable(81) %0, i64 noundef %1, i64 noundef %2) local_unnamed_addr #0 align 2 {
  %4 = icmp ult i64 %1, %2
  br i1 %4, label %7, label %5

5:                                                ; preds = %3
  %6 = load ptr, ptr @g_assert_poison, align 8
  store i8 88, ptr %6, align 1
  tail call void (ptr, i32, ptr, ptr, ...) @_Z15report_vm_errorPKciS0_S0_z(ptr noundef nonnull @.str, i32 noundef 150, ptr noundef nonnull @.str.17, ptr noundef nonnull @.str.18, i64 noundef %1, i64 noundef %2) #9
  unreachable

7:                                                ; preds = %3
  %8 = getelementptr inbounds i8, ptr %0, i64 40
  %9 = load i64, ptr %8, align 8
  %.not = icmp ult i64 %9, %2
  br i1 %.not, label %10, label %_ZNK23G1PageBasedVirtualSpace18is_after_last_pageEm.exit

10:                                               ; preds = %7
  %11 = load ptr, ptr @g_assert_poison, align 8
  store i8 88, ptr %11, align 1
  %12 = load i64, ptr %8, align 8
  tail call void (ptr, i32, ptr, ptr, ...) @_Z15report_vm_errorPKciS0_S0_z(ptr noundef nonnull @.str, i32 noundef 152, ptr noundef nonnull @.str.19, ptr noundef nonnull @.str.20, i64 noundef %2, i64 noundef %12) #9
  unreachable

_ZNK23G1PageBasedVirtualSpace18is_after_last_pageEm.exit: ; preds = %7
  %13 = sub i64 %2, %1
  %14 = icmp eq i64 %9, %2
  br i1 %14, label %15, label %.thread

15:                                               ; preds = %_ZNK23G1PageBasedVirtualSpace18is_after_last_pageEm.exit
  %16 = getelementptr inbounds i8, ptr %0, i64 8
  %17 = load ptr, ptr %16, align 8
  %18 = getelementptr inbounds i8, ptr %0, i64 24
  %19 = load i64, ptr %18, align 8
  %20 = ptrtoint ptr %17 to i64
  %21 = add i64 %19, -1
  %22 = and i64 %21, %20
  %.fr = freeze i64 %22
  %23 = icmp ne i64 %.fr, 0
  %24 = sext i1 %23 to i64
  %spec.select = add i64 %13, %24
  br label %.thread

.thread:                                          ; preds = %15, %_ZNK23G1PageBasedVirtualSpace18is_after_last_pageEm.exit
  %25 = phi i1 [ false, %_ZNK23G1PageBasedVirtualSpace18is_after_last_pageEm.exit ], [ %23, %15 ]
  %26 = phi i64 [ %13, %_ZNK23G1PageBasedVirtualSpace18is_after_last_pageEm.exit ], [ %spec.select, %15 ]
  %.not17 = icmp eq i64 %26, 0
  br i1 %.not17, label %34, label %27

27:                                               ; preds = %.thread
  %28 = load ptr, ptr %0, align 8
  %29 = getelementptr inbounds i8, ptr %0, i64 24
  %30 = load i64, ptr %29, align 8
  %31 = mul i64 %30, %1
  %32 = getelementptr inbounds i8, ptr %28, i64 %31
  %33 = mul i64 %30, %26
  tail call void @_ZN2os21commit_memory_or_exitEPcmmbPKc(ptr noundef %32, i64 noundef %33, i64 noundef %30, i1 noundef zeroext false, ptr noundef nonnull @.str.16) #10
  br label %34

34:                                               ; preds = %27, %.thread
  br i1 %25, label %35, label %47

35:                                               ; preds = %34
  %36 = getelementptr inbounds i8, ptr %0, i64 8
  %37 = load ptr, ptr %36, align 8
  %38 = getelementptr inbounds i8, ptr %0, i64 24
  %39 = load i64, ptr %38, align 8
  %40 = ptrtoint ptr %37 to i64
  %41 = sub i64 0, %39
  %42 = and i64 %41, %40
  %43 = inttoptr i64 %42 to ptr
  %44 = getelementptr inbounds i8, ptr %0, i64 16
  %45 = load i64, ptr %44, align 8
  %46 = load i64, ptr @_ZN6OSInfo13_vm_page_sizeE, align 8
  tail call void @_ZN2os21commit_memory_or_exitEPcmmbPKc(ptr noundef %43, i64 noundef %45, i64 noundef %46, i1 noundef zeroext false, ptr noundef nonnull @.str.16) #10
  br label %47

47:                                               ; preds = %35, %34
  ret void
}